target datalayout = "e-m:e-p270:32:32-p271:32:32-p272:64:64-i64:64-i128:128-f80:128-n8:16:32:64-S128"
target triple = "x86_64-pc-linux-gnu"

%struct.stat = type { i64, i64, i64, i32, i32, i32, i32, i64, i64, i64, i64, %struct.timespec, %struct.timespec, %struct.timespec, [3 x i64] }
%struct.timespec = type { i64, i64 }

; Function Attrs: nounwind uwtable
define dso_local void @PathNameDeleteTemporaryDir(ptr noundef %0) #0 {
  %2 = alloca ptr, align 8
  %3 = alloca %struct.stat, align 8
  %4 = alloca i32, align 4
  store ptr %0, ptr %2, align 8
  call void @llvm.lifetime.start.p0(i64 144, ptr %3) #14
  %5 = load ptr, ptr %2, align 8
  %6 = call i32 @stat(ptr noundef %5, ptr noundef %3) #14
  %7 = icmp ne i32 %6, 0
  br i1 %7, label %8, label %13

8:                                                ; preds = %1
  %9 = call ptr @__errno_location() #15
  %10 = load i32, ptr %9, align 4
  %11 = icmp eq i32 %10, 2
  br i1 %11, label %12, label %13

12:                                               ; preds = %8
  store i32 1, ptr %4, align 4
  br label %15

13:                                               ; preds = %8, %1
  %14 = load ptr, ptr %2, align 8
  call void @walkdir(ptr noundef %14, ptr noundef @unlink_if_exists_fname, i1 noundef zeroext false, i32 noundef 15)
  store i32 0, ptr %4, align 4
  br label %15

15:                                               ; preds = %13, %12
  call void @llvm.lifetime.end.p0(i64 144, ptr %3) #14
  %16 = load i32, ptr %4, align 4
  switch i32 %16, label %18 [
    i32 0, label %17
    i32 1, label %17
  ]

17:                                               ; preds = %15, %15
  ret void

18:                                               ; preds = %15
  unreachable
}