; Function Attrs: nounwind uwtable
define dso_local void @PathNameDeleteTemporaryDir(ptr noundef %0) local_unnamed_addr #0 {
  %2 = alloca %struct.stat, align 8
  call void @llvm.lifetime.start.p0(i64 144, ptr nonnull %2) #25
  %3 = call i32 @stat(ptr noundef %0, ptr noundef nonnull %2) #25
  %.not = icmp eq i32 %3, 0
  br i1 %.not, label %8, label %4

4:                                                ; preds = %1
  %5 = tail call ptr @__errno_location() #26
  %6 = load i32, ptr %5, align 4
  %7 = icmp eq i32 %6, 2
  br i1 %7, label %9, label %8

8:                                                ; preds = %4, %1
  tail call fastcc void @walkdir(ptr noundef %0, ptr noundef nonnull @unlink_if_exists_fname, i1 noundef zeroext false, i32 noundef 15)
  br label %9

9:                                                ; preds = %4, %8
  call void @llvm.lifetime.end.p0(i64 144, ptr nonnull %2) #25
  ret void
}